target datalayout = "e-m:e-p270:32:32-p271:32:32-p272:64:64-i64:64-i128:128-f80:128-n8:16:32:64-S128"
target triple = "x86_64-pc-linux-gnu"

%struct._dfilter_loc = type { i64, i64 }
%struct.sttype_t = type { i32, ptr, ptr, ptr, ptr }
%struct.stnode = type { ptr, ptr, ptr, ptr, ptr, %struct._dfilter_loc, i16 }
%struct._GSList = type { ptr, ptr }

@.str.41 = private unnamed_addr constant [8 x i8] c"DFilter\00", align 1
@.str.54 = private unnamed_addr constant [6 x i8] c"% 2d \00", align 1
@.str.55 = private unnamed_addr constant [5 x i8] c"%s:\0A\00", align 1
@.str.56 = private unnamed_addr constant [27 x i8] c"epan/dfilter/syntax-tree.c\00", align 1
@__func__.visit_tree = private unnamed_addr constant [11 x i8] c"visit_tree\00", align 1
@.str.57 = private unnamed_addr constant [31 x i8] c"assertion \22not reached\22 failed\00", align 1
@.str.58 = private unnamed_addr constant [11 x i8] c"SET(#%u):\0A\00", align 1
@.str.59 = private unnamed_addr constant [5 x i8] c" .. \00", align 1

; Function Attrs: nounwind null_pointer_is_valid sspstrong uwtable
define ptr @stnode_data(ptr noundef %0) #2 {
  %2 = alloca ptr, align 8
  store ptr %0, ptr %2, align 8
  %3 = load ptr, ptr %2, align 8
  %4 = getelementptr inbounds nuw %struct.stnode, ptr %3, i32 0, i32 1
  %5 = load ptr, ptr %4, align 8
  ret ptr %5
}

; Function Attrs: null_pointer_is_valid sspstrong uwtable
define internal void @indent(ptr noundef %0, i32 noundef %1) #0 {
  %3 = alloca ptr, align 8
  %4 = alloca i32, align 4
  %5 = alloca i32, align 4
  store ptr %0, ptr %3, align 8
  store i32 %1, ptr %4, align 4
  call void @llvm.lifetime.start.p0(i64 4, ptr %5) #9
  store i32 0, ptr %5, align 4
  br label %6

6:                                                ; preds = %14, %2
  %7 = load i32, ptr %5, align 4
  %8 = load i32, ptr %4, align 4
  %9 = mul i32 %8, 2
  %10 = icmp slt i32 %7, %9
  br i1 %10, label %12, label %11

11:                                               ; preds = %6
  call void @llvm.lifetime.end.p0(i64 4, ptr %5) #9
  br label %17

12:                                               ; preds = %6
  %13 = load ptr, ptr %3, align 8
  call void @wmem_strbuf_append_c(ptr noundef %13, i8 noundef signext 32)
  br label %14

14:                                               ; preds = %12
  %15 = load i32, ptr %5, align 4
  %16 = add i32 %15, 1
  store i32 %16, ptr %5, align 4
  br label %6, !llvm.loop !8

17:                                               ; preds = %11
  %18 = load ptr, ptr %3, align 8
  %19 = load i32, ptr %4, align 4
  call void (ptr, ptr, ...) @wmem_strbuf_append_printf(ptr noundef %18, ptr noundef @.str.54, i32 noundef %19)
  ret void
}

; Function Attrs: nounwind null_pointer_is_valid sspstrong uwtable
define i32 @stnode_type_id(ptr noundef %0) #2 {
  %2 = alloca i32, align 4
  %3 = alloca ptr, align 8
  store ptr %0, ptr %3, align 8
  %4 = load ptr, ptr %3, align 8
  %5 = getelementptr inbounds nuw %struct.stnode, ptr %4, i32 0, i32 0
  %6 = load ptr, ptr %5, align 8
  %7 = icmp ne ptr %6, null
  br i1 %7, label %8, label %14

8:                                                ; preds = %1
  %9 = load ptr, ptr %3, align 8
  %10 = getelementptr inbounds nuw %struct.stnode, ptr %9, i32 0, i32 0
  %11 = load ptr, ptr %10, align 8
  %12 = getelementptr inbounds nuw %struct.sttype_t, ptr %11, i32 0, i32 0
  %13 = load i32, ptr %12, align 8
  store i32 %13, ptr %2, align 4
  br label %15

14:                                               ; preds = %1
  store i32 0, ptr %2, align 4
  br label %15

15:                                               ; preds = %14, %8
  %16 = load i32, ptr %2, align 4
  ret i32 %16
}

; Function Attrs: null_pointer_is_valid sspstrong uwtable
define internal void @visit_tree(ptr noundef %0, ptr noundef %1, i32 noundef %2) #0 {
  %4 = alloca ptr, align 8
  %5 = alloca ptr, align 8
  %6 = alloca i32, align 4
  %7 = alloca ptr, align 8
  %8 = alloca ptr, align 8
  %9 = alloca ptr, align 8
  %10 = alloca ptr, align 8
  %11 = alloca ptr, align 8
  %12 = alloca ptr, align 8
  store ptr %0, ptr %4, align 8
  store ptr %1, ptr %5, align 8
  store i32 %2, ptr %6, align 4
  call void @llvm.lifetime.start.p0(i64 8, ptr %7) #9
  call void @llvm.lifetime.start.p0(i64 8, ptr %8) #9
  call void @llvm.lifetime.start.p0(i64 8, ptr %9) #9
  call void @llvm.lifetime.start.p0(i64 8, ptr %10) #9
  call void @llvm.lifetime.start.p0(i64 8, ptr %11) #9
  call void @llvm.lifetime.start.p0(i64 8, ptr %12) #9
  %13 = load ptr, ptr %5, align 8
  %14 = call i32 @stnode_type_id(ptr noundef %13)
  %15 = icmp eq i32 %14, 1
  br i1 %15, label %20, label %16

16:                                               ; preds = %3
  %17 = load ptr, ptr %5, align 8
  %18 = call i32 @stnode_type_id(ptr noundef %17)
  %19 = icmp eq i32 %18, 14
  br i1 %19, label %20, label %64

20:                                               ; preds = %16, %3
  %21 = load ptr, ptr %4, align 8
  %22 = load ptr, ptr %5, align 8
  %23 = call ptr @stnode_tostr(ptr noundef %22, i1 noundef zeroext false)
  call void (ptr, ptr, ...) @wmem_strbuf_append_printf(ptr noundef %21, ptr noundef @.str.55, ptr noundef %23)
  %24 = load ptr, ptr %5, align 8
  call void @sttype_oper_get(ptr noundef %24, ptr noundef null, ptr noundef %7, ptr noundef %8)
  %25 = load ptr, ptr %7, align 8
  %26 = icmp ne ptr %25, null
  br i1 %26, label %27, label %46

27:                                               ; preds = %20
  %28 = load ptr, ptr %8, align 8
  %29 = icmp ne ptr %28, null
  br i1 %29, label %30, label %46

30:                                               ; preds = %27
  %31 = load ptr, ptr %4, align 8
  %32 = load i32, ptr %6, align 4
  %33 = add i32 %32, 1
  call void @indent(ptr noundef %31, i32 noundef %33)
  %34 = load ptr, ptr %4, align 8
  %35 = load ptr, ptr %7, align 8
  %36 = load i32, ptr %6, align 4
  %37 = add i32 %36, 1
  call void @visit_tree(ptr noundef %34, ptr noundef %35, i32 noundef %37)
  %38 = load ptr, ptr %4, align 8
  call void @wmem_strbuf_append_c(ptr noundef %38, i8 noundef signext 10)
  %39 = load ptr, ptr %4, align 8
  %40 = load i32, ptr %6, align 4
  %41 = add i32 %40, 1
  call void @indent(ptr noundef %39, i32 noundef %41)
  %42 = load ptr, ptr %4, align 8
  %43 = load ptr, ptr %8, align 8
  %44 = load i32, ptr %6, align 4
  %45 = add i32 %44, 1
  call void @visit_tree(ptr noundef %42, ptr noundef %43, i32 noundef %45)
  br label %63

46:                                               ; preds = %27, %20
  %47 = load ptr, ptr %7, align 8
  %48 = icmp ne ptr %47, null
  br i1 %48, label %49, label %57

49:                                               ; preds = %46
  %50 = load ptr, ptr %4, align 8
  %51 = load i32, ptr %6, align 4
  %52 = add i32 %51, 1
  call void @indent(ptr noundef %50, i32 noundef %52)
  %53 = load ptr, ptr %4, align 8
  %54 = load ptr, ptr %7, align 8
  %55 = load i32, ptr %6, align 4
  %56 = add i32 %55, 1
  call void @visit_tree(ptr noundef %53, ptr noundef %54, i32 noundef %56)
  br label %62

57:                                               ; preds = %46
  %58 = load ptr, ptr %8, align 8
  %59 = icmp ne ptr %58, null
  br i1 %59, label %60, label %61

60:                                               ; preds = %57
  call void (ptr, i32, ptr, i64, ptr, ptr, ...) @ws_log_fatal_full(ptr noundef @.str.41, i32 noundef 7, ptr noundef @.str.56, i64 noundef 543, ptr noundef @__func__.visit_tree, ptr noundef @.str.57) #12
  unreachable

61:                                               ; preds = %57
  br label %62

62:                                               ; preds = %61, %49
  br label %63

63:                                               ; preds = %62, %30
  br label %166

64:                                               ; preds = %16
  %65 = load ptr, ptr %5, align 8
  %66 = call i32 @stnode_type_id(ptr noundef %65)
  %67 = icmp eq i32 %66, 12
  br i1 %67, label %68, label %126

68:                                               ; preds = %64
  %69 = load ptr, ptr %5, align 8
  %70 = call ptr @stnode_data(ptr noundef %69)
  store ptr %70, ptr %12, align 8
  %71 = load ptr, ptr %4, align 8
  %72 = load ptr, ptr %12, align 8
  %73 = call i32 @g_slist_length(ptr noundef %72)
  %74 = udiv i32 %73, 2
  call void (ptr, ptr, ...) @wmem_strbuf_append_printf(ptr noundef %71, ptr noundef @.str.58, i32 noundef %74)
  br label %75

75:                                               ; preds = %124, %68
  %76 = load ptr, ptr %12, align 8
  %77 = icmp ne ptr %76, null
  br i1 %77, label %78, label %125

78:                                               ; preds = %75
  %79 = load ptr, ptr %4, align 8
  %80 = load i32, ptr %6, align 4
  %81 = add i32 %80, 1
  call void @indent(ptr noundef %79, i32 noundef %81)
  %82 = load ptr, ptr %12, align 8
  %83 = getelementptr inbounds nuw %struct._GSList, ptr %82, i32 0, i32 0
  %84 = load ptr, ptr %83, align 8
  store ptr %84, ptr %9, align 8
  %85 = load ptr, ptr %4, align 8
  %86 = load ptr, ptr %9, align 8
  %87 = call ptr @stnode_tostr(ptr noundef %86, i1 noundef zeroext false)
  call void @wmem_strbuf_append(ptr noundef %85, ptr noundef %87)
  %88 = load ptr, ptr %12, align 8
  %89 = icmp ne ptr %88, null
  br i1 %89, label %90, label %94

90:                                               ; preds = %78
  %91 = load ptr, ptr %12, align 8
  %92 = getelementptr inbounds nuw %struct._GSList, ptr %91, i32 0, i32 1
  %93 = load ptr, ptr %92, align 8
  br label %95

94:                                               ; preds = %78
  br label %95

95:                                               ; preds = %94, %90
  %96 = phi ptr [ %93, %90 ], [ null, %94 ]
  store ptr %96, ptr %12, align 8
  br label %97

97:                                               ; preds = %95
  br label %98

98:                                               ; preds = %97
  br label %99

99:                                               ; preds = %98
  %100 = load ptr, ptr %12, align 8
  %101 = getelementptr inbounds nuw %struct._GSList, ptr %100, i32 0, i32 0
  %102 = load ptr, ptr %101, align 8
  store ptr %102, ptr %10, align 8
  %103 = load ptr, ptr %10, align 8
  %104 = icmp ne ptr %103, null
  br i1 %104, label %105, label %110

105:                                              ; preds = %99
  %106 = load ptr, ptr %4, align 8
  call void @wmem_strbuf_append(ptr noundef %106, ptr noundef @.str.59)
  %107 = load ptr, ptr %4, align 8
  %108 = load ptr, ptr %10, align 8
  %109 = call ptr @stnode_tostr(ptr noundef %108, i1 noundef zeroext false)
  call void @wmem_strbuf_append(ptr noundef %107, ptr noundef %109)
  br label %110

110:                                              ; preds = %105, %99
  %111 = load ptr, ptr %12, align 8
  %112 = icmp ne ptr %111, null
  br i1 %112, label %113, label %117

113:                                              ; preds = %110
  %114 = load ptr, ptr %12, align 8
  %115 = getelementptr inbounds nuw %struct._GSList, ptr %114, i32 0, i32 1
  %116 = load ptr, ptr %115, align 8
  br label %118

117:                                              ; preds = %110
  br label %118

118:                                              ; preds = %117, %113
  %119 = phi ptr [ %116, %113 ], [ null, %117 ]
  store ptr %119, ptr %12, align 8
  %120 = load ptr, ptr %12, align 8
  %121 = icmp ne ptr %120, null
  br i1 %121, label %122, label %124

122:                                              ; preds = %118
  %123 = load ptr, ptr %4, align 8
  call void @wmem_strbuf_append_c(ptr noundef %123, i8 noundef signext 10)
  br label %124

124:                                              ; preds = %122, %118
  br label %75, !llvm.loop !10

125:                                              ; preds = %75
  br label %165

126:                                              ; preds = %64
  %127 = load ptr, ptr %5, align 8
  %128 = call i32 @stnode_type_id(ptr noundef %127)
  %129 = icmp eq i32 %128, 11
  br i1 %129, label %130, label %160

130:                                              ; preds = %126
  %131 = load ptr, ptr %4, align 8
  %132 = load ptr, ptr %5, align 8
  %133 = call ptr @stnode_tostr(ptr noundef %132, i1 noundef zeroext false)
  call void (ptr, ptr, ...) @wmem_strbuf_append_printf(ptr noundef %131, ptr noundef @.str.55, ptr noundef %133)
  %134 = load ptr, ptr %5, align 8
  %135 = call ptr @sttype_function_params(ptr noundef %134)
  store ptr %135, ptr %11, align 8
  br label %136

136:                                              ; preds = %155, %130
  %137 = load ptr, ptr %11, align 8
  %138 = icmp ne ptr %137, null
  br i1 %138, label %139, label %159

139:                                              ; preds = %136
  %140 = load ptr, ptr %4, align 8
  %141 = load i32, ptr %6, align 4
  %142 = add i32 %141, 1
  call void @indent(ptr noundef %140, i32 noundef %142)
  %143 = load ptr, ptr %4, align 8
  %144 = load ptr, ptr %11, align 8
  %145 = getelementptr inbounds nuw %struct._GSList, ptr %144, i32 0, i32 0
  %146 = load ptr, ptr %145, align 8
  %147 = load i32, ptr %6, align 4
  %148 = add i32 %147, 1
  call void @visit_tree(ptr noundef %143, ptr noundef %146, i32 noundef %148)
  %149 = load ptr, ptr %11, align 8
  %150 = getelementptr inbounds nuw %struct._GSList, ptr %149, i32 0, i32 1
  %151 = load ptr, ptr %150, align 8
  %152 = icmp ne ptr %151, null
  br i1 %152, label %153, label %155

153:                                              ; preds = %139
  %154 = load ptr, ptr %4, align 8
  call void @wmem_strbuf_append_c(ptr noundef %154, i8 noundef signext 10)
  br label %155

155:                                              ; preds = %153, %139
  %156 = load ptr, ptr %11, align 8
  %157 = getelementptr inbounds nuw %struct._GSList, ptr %156, i32 0, i32 1
  %158 = load ptr, ptr %157, align 8
  store ptr %158, ptr %11, align 8
  br label %136, !llvm.loop !11

159:                                              ; preds = %136
  br label %164

160:                                              ; preds = %126
  %161 = load ptr, ptr %4, align 8
  %162 = load ptr, ptr %5, align 8
  %163 = call ptr @stnode_tostr(ptr noundef %162, i1 noundef zeroext false)
  call void @wmem_strbuf_append(ptr noundef %161, ptr noundef %163)
  br label %164

164:                                              ; preds = %160, %159
  br label %165

165:                                              ; preds = %164, %125
  br label %166

166:                                              ; preds = %165, %63
  call void @llvm.lifetime.end.p0(i64 8, ptr %12) #9
  call void @llvm.lifetime.end.p0(i64 8, ptr %11) #9
  call void @llvm.lifetime.end.p0(i64 8, ptr %10) #9
  call void @llvm.lifetime.end.p0(i64 8, ptr %9) #9
  call void @llvm.lifetime.end.p0(i64 8, ptr %8) #9
  call void @llvm.lifetime.end.p0(i64 8, ptr %7) #9
  ret void
}