; Function Attrs: null_pointer_is_valid sspstrong uwtable
define internal fastcc void @visit_tree(ptr noundef %0, ptr noundef %1, i32 noundef %2) unnamed_addr #0 {
  %4 = alloca ptr, align 8
  %5 = alloca ptr, align 8
  call void @llvm.lifetime.start.p0(i64 8, ptr nonnull %4) #15
  call void @llvm.lifetime.start.p0(i64 8, ptr nonnull %5) #15
  %6 = load ptr, ptr %1, align 8
  %.not.i = icmp eq ptr %6, null
  br i1 %.not.i, label %stnode_type_id.exit82.thread, label %stnode_type_id.exit

stnode_type_id.exit:                              ; preds = %3
  %7 = load i32, ptr %6, align 8
  switch i32 %7, label %stnode_type_id.exit82.thread [
    i32 1, label %8
    i32 14, label %8
    i32 12, label %32
    i32 11, label %53
  ]

8:                                                ; preds = %stnode_type_id.exit, %stnode_type_id.exit
  %9 = tail call ptr @stnode_tostr(ptr noundef %1, i1 noundef zeroext false)
  tail call void (ptr, ptr, ...) @wmem_strbuf_append_printf(ptr noundef %0, ptr noundef nonnull @.str.55, ptr noundef %9)
  call void @sttype_oper_get(ptr noundef %1, ptr noundef null, ptr noundef nonnull %4, ptr noundef nonnull %5)
  %10 = load ptr, ptr %4, align 8
  %11 = icmp ne ptr %10, null
  %12 = load ptr, ptr %5, align 8
  %13 = icmp ne ptr %12, null
  %or.cond = select i1 %11, i1 %13, i1 false
  br i1 %or.cond, label %14, label %23

14:                                               ; preds = %8
  %15 = add i32 %2, 1
  %16 = shl i32 %15, 1
  %17 = icmp sgt i32 %16, 0
  br i1 %17, label %.lr.ph.i, label %indent.exit68.critedge

.lr.ph.i:                                         ; preds = %14, %.lr.ph.i
  %.05.i = phi i32 [ %18, %.lr.ph.i ], [ 0, %14 ]
  call void @wmem_strbuf_append_c(ptr noundef %0, i8 noundef signext 32)
  %18 = add nuw nsw i32 %.05.i, 1
  %exitcond.not.i = icmp eq i32 %18, %16
  br i1 %exitcond.not.i, label %indent.exit, label %.lr.ph.i, !llvm.loop !6

indent.exit:                                      ; preds = %.lr.ph.i
  call void (ptr, ptr, ...) @wmem_strbuf_append_printf(ptr noundef %0, ptr noundef nonnull @.str.54, i32 noundef %15)
  %19 = load ptr, ptr %4, align 8
  call fastcc void @visit_tree(ptr noundef %0, ptr noundef %19, i32 noundef %15)
  call void @wmem_strbuf_append_c(ptr noundef %0, i8 noundef signext 10)
  br label %.lr.ph.i65

.lr.ph.i65:                                       ; preds = %indent.exit, %.lr.ph.i65
  %.05.i66 = phi i32 [ %20, %.lr.ph.i65 ], [ 0, %indent.exit ]
  call void @wmem_strbuf_append_c(ptr noundef %0, i8 noundef signext 32)
  %20 = add nuw nsw i32 %.05.i66, 1
  %exitcond.not.i67 = icmp eq i32 %20, %16
  br i1 %exitcond.not.i67, label %indent.exit68, label %.lr.ph.i65, !llvm.loop !6

indent.exit68.critedge:                           ; preds = %14
  call void (ptr, ptr, ...) @wmem_strbuf_append_printf(ptr noundef %0, ptr noundef nonnull @.str.54, i32 noundef %15)
  %21 = load ptr, ptr %4, align 8
  call fastcc void @visit_tree(ptr noundef %0, ptr noundef %21, i32 noundef %15)
  call void @wmem_strbuf_append_c(ptr noundef %0, i8 noundef signext 10)
  br label %indent.exit68

indent.exit68:                                    ; preds = %.lr.ph.i65, %indent.exit68.critedge
  call void (ptr, ptr, ...) @wmem_strbuf_append_printf(ptr noundef %0, ptr noundef nonnull @.str.54, i32 noundef %15)
  %22 = load ptr, ptr %5, align 8
  call fastcc void @visit_tree(ptr noundef %0, ptr noundef %22, i32 noundef %15)
  br label %.loopexit

23:                                               ; preds = %8
  br i1 %11, label %24, label %30

24:                                               ; preds = %23
  %25 = add i32 %2, 1
  %26 = shl i32 %25, 1
  %27 = icmp sgt i32 %26, 0
  br i1 %27, label %.lr.ph.i69, label %indent.exit72

.lr.ph.i69:                                       ; preds = %24, %.lr.ph.i69
  %.05.i70 = phi i32 [ %28, %.lr.ph.i69 ], [ 0, %24 ]
  call void @wmem_strbuf_append_c(ptr noundef %0, i8 noundef signext 32)
  %28 = add nuw nsw i32 %.05.i70, 1
  %exitcond.not.i71 = icmp eq i32 %28, %26
  br i1 %exitcond.not.i71, label %indent.exit72, label %.lr.ph.i69, !llvm.loop !6

indent.exit72:                                    ; preds = %.lr.ph.i69, %24
  call void (ptr, ptr, ...) @wmem_strbuf_append_printf(ptr noundef %0, ptr noundef nonnull @.str.54, i32 noundef %25)
  %29 = load ptr, ptr %4, align 8
  call fastcc void @visit_tree(ptr noundef %0, ptr noundef %29, i32 noundef %25)
  br label %.loopexit

30:                                               ; preds = %23
  br i1 %13, label %31, label %.loopexit

31:                                               ; preds = %30
  call void (ptr, i32, ptr, i64, ptr, ptr, ...) @ws_log_fatal_full(ptr noundef nonnull @.str.41, i32 noundef 7, ptr noundef nonnull @.str.56, i64 noundef 543, ptr noundef nonnull @__func__.visit_tree, ptr noundef nonnull @.str.57) #16
  unreachable

32:                                               ; preds = %stnode_type_id.exit
  %33 = getelementptr inbounds nuw i8, ptr %1, i64 8
  %34 = load ptr, ptr %33, align 8
  %35 = tail call i32 @g_slist_length(ptr noundef %34)
  %36 = lshr i32 %35, 1
  tail call void (ptr, ptr, ...) @wmem_strbuf_append_printf(ptr noundef %0, ptr noundef nonnull @.str.58, i32 noundef %36)
  %.not5898 = icmp eq ptr %34, null
  br i1 %.not5898, label %.loopexit, label %.lr.ph100

.lr.ph100:                                        ; preds = %32
  %37 = add i32 %2, 1
  %38 = shl i32 %37, 1
  %39 = icmp sgt i32 %38, 0
  br label %40

40:                                               ; preds = %.thread91, %.lr.ph100
  %.099 = phi ptr [ %34, %.lr.ph100 ], [ %52, %.thread91 ]
  br i1 %39, label %.lr.ph.i76, label %indent.exit79

.lr.ph.i76:                                       ; preds = %40, %.lr.ph.i76
  %.05.i77 = phi i32 [ %41, %.lr.ph.i76 ], [ 0, %40 ]
  tail call void @wmem_strbuf_append_c(ptr noundef %0, i8 noundef signext 32)
  %41 = add nuw nsw i32 %.05.i77, 1
  %exitcond.not.i78 = icmp eq i32 %41, %38
  br i1 %exitcond.not.i78, label %indent.exit79, label %.lr.ph.i76, !llvm.loop !6

indent.exit79:                                    ; preds = %.lr.ph.i76, %40
  tail call void (ptr, ptr, ...) @wmem_strbuf_append_printf(ptr noundef %0, ptr noundef nonnull @.str.54, i32 noundef %37)
  %42 = load ptr, ptr %.099, align 8
  %43 = tail call ptr @stnode_tostr(ptr noundef %42, i1 noundef zeroext false)
  tail call void @wmem_strbuf_append(ptr noundef %0, ptr noundef %43)
  %44 = getelementptr inbounds nuw i8, ptr %.099, i64 8
  %45 = load ptr, ptr %44, align 8
  %46 = load ptr, ptr %45, align 8
  %.not59 = icmp eq ptr %46, null
  br i1 %.not59, label %49, label %47

47:                                               ; preds = %indent.exit79
  tail call void @wmem_strbuf_append(ptr noundef %0, ptr noundef nonnull @.str.59)
  %48 = tail call ptr @stnode_tostr(ptr noundef nonnull %46, i1 noundef zeroext false)
  tail call void @wmem_strbuf_append(ptr noundef %0, ptr noundef %48)
  br label %49

49:                                               ; preds = %47, %indent.exit79
  %.not60 = icmp eq ptr %45, null
  br i1 %.not60, label %.loopexit, label %50

50:                                               ; preds = %49
  %51 = getelementptr inbounds nuw i8, ptr %45, i64 8
  %52 = load ptr, ptr %51, align 8
  %.not61 = icmp eq ptr %52, null
  br i1 %.not61, label %.loopexit, label %.thread91

.thread91:                                        ; preds = %50
  tail call void @wmem_strbuf_append_c(ptr noundef %0, i8 noundef signext 10)
  br label %40, !llvm.loop !8

53:                                               ; preds = %stnode_type_id.exit
  %54 = tail call ptr @stnode_tostr(ptr noundef %1, i1 noundef zeroext false)
  tail call void (ptr, ptr, ...) @wmem_strbuf_append_printf(ptr noundef %0, ptr noundef nonnull @.str.55, ptr noundef %54)
  %55 = tail call ptr @sttype_function_params(ptr noundef %1)
  %.not96 = icmp eq ptr %55, null
  br i1 %.not96, label %.loopexit, label %.lr.ph

.lr.ph:                                           ; preds = %53
  %56 = add i32 %2, 1
  %57 = shl i32 %56, 1
  %58 = icmp sgt i32 %57, 0
  br i1 %58, label %.lr.ph.i83.preheader.us, label %indent.exit86

.lr.ph.i83.preheader.us:                          ; preds = %.lr.ph, %60
  %.05497.us = phi ptr [ %.pre103, %60 ], [ %55, %.lr.ph ]
  br label %.lr.ph.i83.us

.lr.ph.i83.us:                                    ; preds = %.lr.ph.i83.preheader.us, %.lr.ph.i83.us
  %.05.i84.us = phi i32 [ %59, %.lr.ph.i83.us ], [ 0, %.lr.ph.i83.preheader.us ]
  tail call void @wmem_strbuf_append_c(ptr noundef %0, i8 noundef signext 32)
  %59 = add nuw nsw i32 %.05.i84.us, 1
  %exitcond.not.i85.us = icmp eq i32 %59, %57
  br i1 %exitcond.not.i85.us, label %indent.exit86.loopexit.us, label %.lr.ph.i83.us, !llvm.loop !6

60:                                               ; preds = %indent.exit86.loopexit.us
  tail call void @wmem_strbuf_append_c(ptr noundef %0, i8 noundef signext 10)
  %.pre103 = load ptr, ptr %62, align 8
  %.not.us = icmp eq ptr %.pre103, null
  br i1 %.not.us, label %.loopexit, label %.lr.ph.i83.preheader.us, !llvm.loop !9

indent.exit86.loopexit.us:                        ; preds = %.lr.ph.i83.us
  tail call void (ptr, ptr, ...) @wmem_strbuf_append_printf(ptr noundef %0, ptr noundef nonnull @.str.54, i32 noundef %56)
  %61 = load ptr, ptr %.05497.us, align 8
  tail call fastcc void @visit_tree(ptr noundef %0, ptr noundef %61, i32 noundef %56)
  %62 = getelementptr inbounds nuw i8, ptr %.05497.us, i64 8
  %63 = load ptr, ptr %62, align 8
  %.not57.us = icmp eq ptr %63, null
  br i1 %.not57.us, label %.loopexit, label %60

indent.exit86:                                    ; preds = %.lr.ph, %67
  %.05497 = phi ptr [ %.pre, %67 ], [ %55, %.lr.ph ]
  tail call void (ptr, ptr, ...) @wmem_strbuf_append_printf(ptr noundef %0, ptr noundef nonnull @.str.54, i32 noundef %56)
  %64 = load ptr, ptr %.05497, align 8
  tail call fastcc void @visit_tree(ptr noundef %0, ptr noundef %64, i32 noundef %56)
  %65 = getelementptr inbounds nuw i8, ptr %.05497, i64 8
  %66 = load ptr, ptr %65, align 8
  %.not57 = icmp eq ptr %66, null
  br i1 %.not57, label %.loopexit, label %67

67:                                               ; preds = %indent.exit86
  tail call void @wmem_strbuf_append_c(ptr noundef %0, i8 noundef signext 10)
  %.pre = load ptr, ptr %65, align 8
  %.not = icmp eq ptr %.pre, null
  br i1 %.not, label %.loopexit, label %indent.exit86, !llvm.loop !9

stnode_type_id.exit82.thread:                     ; preds = %stnode_type_id.exit, %3
  %68 = tail call ptr @stnode_tostr(ptr noundef %1, i1 noundef zeroext false)
  tail call void @wmem_strbuf_append(ptr noundef %0, ptr noundef %68)
  br label %.loopexit

.loopexit:                                        ; preds = %indent.exit86, %67, %60, %indent.exit86.loopexit.us, %49, %50, %53, %32, %stnode_type_id.exit82.thread, %indent.exit68, %30, %indent.exit72
  call void @llvm.lifetime.end.p0(i64 8, ptr nonnull %5) #15
  call void @llvm.lifetime.end.p0(i64 8, ptr nonnull %4) #15
  ret void
}